; ModuleID = '20/766.c'
source_filename = "20/766.c"
target datalayout = "e-m:e-p270:32:32-p271:32:32-p272:64:64-i64:64-f80:128-n8:16:32:64-S128"
target triple = "x86_64-pc-linux-gnu"

@.str = private unnamed_addr constant [6 x i8] c"%s %s\00", align 1
@.str.1 = private unnamed_addr constant [2 x i8] c"\0A\00", align 1
@.str.2 = private unnamed_addr constant [3 x i8] c"%c\00", align 1

; Function Attrs: noinline nounwind uwtable
define dso_local i32 @main() #0 {
  %1 = alloca i32, align 4
  %2 = alloca [20 x [11 x i8]], align 16
  %3 = alloca [20 x [4 x i8]], align 16
  %4 = alloca i32, align 4
  %5 = alloca i32, align 4
  %6 = alloca i32, align 4
  %7 = alloca i32, align 4
  %8 = alloca i32, align 4
  %9 = alloca i32, align 4
  %10 = alloca i32, align 4
  %11 = alloca i32, align 4
  %12 = alloca i8, align 1
  store i32 0, i32* %1, align 4
  store i32 0, i32* %4, align 4
  store i8 0, i8* %12, align 1
  br label %13

13:                                               ; preds = %24, %0
  %14 = load i32, i32* %4, align 4
  %15 = sext i32 %14 to i64
  %16 = getelementptr inbounds [20 x [11 x i8]], [20 x [11 x i8]]* %2, i64 0, i64 %15
  %17 = getelementptr inbounds [11 x i8], [11 x i8]* %16, i64 0, i64 0
  %18 = load i32, i32* %4, align 4
  %19 = sext i32 %18 to i64
  %20 = getelementptr inbounds [20 x [4 x i8]], [20 x [4 x i8]]* %3, i64 0, i64 %19
  %21 = getelementptr inbounds [4 x i8], [4 x i8]* %20, i64 0, i64 0
  %22 = call i32 (i8*, ...) @__isoc99_scanf(i8* getelementptr inbounds ([6 x i8], [6 x i8]* @.str, i64 0, i64 0), i8* %17, i8* %21)
  %23 = icmp ne i32 %22, -1
  br i1 %23, label %24, label %28

24:                                               ; preds = %13
  %25 = call i32 (i8*, ...) @__isoc99_scanf(i8* getelementptr inbounds ([2 x i8], [2 x i8]* @.str.1, i64 0, i64 0))
  %26 = load i32, i32* %4, align 4
  %27 = add nsw i32 %26, 1
  store i32 %27, i32* %4, align 4
  br label %13

28:                                               ; preds = %13
  %29 = load i32, i32* %4, align 4
  store i32 %29, i32* %6, align 4
  store i32 0, i32* %4, align 4
  br label %30

30:                                               ; preds = %136, %28
  %31 = load i32, i32* %4, align 4
  %32 = load i32, i32* %6, align 4
  %33 = icmp slt i32 %31, %32
  br i1 %33, label %34, label %139

34:                                               ; preds = %30
  %35 = load i32, i32* %4, align 4
  %36 = sext i32 %35 to i64
  %37 = getelementptr inbounds [20 x [11 x i8]], [20 x [11 x i8]]* %2, i64 0, i64 %36
  %38 = getelementptr inbounds [11 x i8], [11 x i8]* %37, i64 0, i64 0
  %39 = call i64 @strlen(i8* %38) #3
  %40 = trunc i64 %39 to i32
  store i32 %40, i32* %7, align 4
  store i32 0, i32* %5, align 4
  br label %41

41:                                               ; preds = %66, %34
  %42 = load i32, i32* %5, align 4
  %43 = load i32, i32* %7, align 4
  %44 = icmp slt i32 %42, %43
  br i1 %44, label %45, label %69

45:                                               ; preds = %41
  %46 = load i32, i32* %4, align 4
  %47 = sext i32 %46 to i64
  %48 = getelementptr inbounds [20 x [11 x i8]], [20 x [11 x i8]]* %2, i64 0, i64 %47
  %49 = load i32, i32* %5, align 4
  %50 = sext i32 %49 to i64
  %51 = getelementptr inbounds [11 x i8], [11 x i8]* %48, i64 0, i64 %50
  %52 = load i8, i8* %51, align 1
  %53 = sext i8 %52 to i32
  %54 = load i8, i8* %12, align 1
  %55 = sext i8 %54 to i32
  %56 = icmp sgt i32 %53, %55
  br i1 %56, label %57, label %65

57:                                               ; preds = %45
  %58 = load i32, i32* %4, align 4
  %59 = sext i32 %58 to i64
  %60 = getelementptr inbounds [20 x [11 x i8]], [20 x [11 x i8]]* %2, i64 0, i64 %59
  %61 = load i32, i32* %5, align 4
  %62 = sext i32 %61 to i64
  %63 = getelementptr inbounds [11 x i8], [11 x i8]* %60, i64 0, i64 %62
  %64 = load i8, i8* %63, align 1
  store i8 %64, i8* %12, align 1
  br label %65

65:                                               ; preds = %57, %45
  br label %66

66:                                               ; preds = %65
  %67 = load i32, i32* %5, align 4
  %68 = add nsw i32 %67, 1
  store i32 %68, i32* %5, align 4
  br label %41

69:                                               ; preds = %41
  store i32 0, i32* %8, align 4
  br label %70

70:                                               ; preds = %82, %69
  %71 = load i32, i32* %4, align 4
  %72 = sext i32 %71 to i64
  %73 = getelementptr inbounds [20 x [11 x i8]], [20 x [11 x i8]]* %2, i64 0, i64 %72
  %74 = load i32, i32* %8, align 4
  %75 = sext i32 %74 to i64
  %76 = getelementptr inbounds [11 x i8], [11 x i8]* %73, i64 0, i64 %75
  %77 = load i8, i8* %76, align 1
  %78 = sext i8 %77 to i32
  %79 = load i8, i8* %12, align 1
  %80 = sext i8 %79 to i32
  %81 = icmp ne i32 %78, %80
  br i1 %81, label %82, label %93

82:                                               ; preds = %70
  %83 = load i32, i32* %4, align 4
  %84 = sext i32 %83 to i64
  %85 = getelementptr inbounds [20 x [11 x i8]], [20 x [11 x i8]]* %2, i64 0, i64 %84
  %86 = load i32, i32* %8, align 4
  %87 = add nsw i32 %86, 1
  store i32 %87, i32* %8, align 4
  %88 = sext i32 %86 to i64
  %89 = getelementptr inbounds [11 x i8], [11 x i8]* %85, i64 0, i64 %88
  %90 = load i8, i8* %89, align 1
  %91 = sext i8 %90 to i32
  %92 = call i32 (i8*, ...) @printf(i8* getelementptr inbounds ([3 x i8], [3 x i8]* @.str.2, i64 0, i64 0), i32 %91)
  br label %70

93:                                               ; preds = %70
  %94 = load i32, i32* %8, align 4
  store i32 %94, i32* %11, align 4
  %95 = load i8, i8* %12, align 1
  %96 = sext i8 %95 to i32
  %97 = call i32 (i8*, ...) @printf(i8* getelementptr inbounds ([3 x i8], [3 x i8]* @.str.2, i64 0, i64 0), i32 %96)
  store i32 0, i32* %9, align 4
  br label %98

98:                                               ; preds = %111, %93
  %99 = load i32, i32* %9, align 4
  %100 = icmp slt i32 %99, 3
  br i1 %100, label %101, label %114

101:                                              ; preds = %98
  %102 = load i32, i32* %4, align 4
  %103 = sext i32 %102 to i64
  %104 = getelementptr inbounds [20 x [4 x i8]], [20 x [4 x i8]]* %3, i64 0, i64 %103
  %105 = load i32, i32* %9, align 4
  %106 = sext i32 %105 to i64
  %107 = getelementptr inbounds [4 x i8], [4 x i8]* %104, i64 0, i64 %106
  %108 = load i8, i8* %107, align 1
  %109 = sext i8 %108 to i32
  %110 = call i32 (i8*, ...) @printf(i8* getelementptr inbounds ([3 x i8], [3 x i8]* @.str.2, i64 0, i64 0), i32 %109)
  br label %111

111:                                              ; preds = %101
  %112 = load i32, i32* %9, align 4
  %113 = add nsw i32 %112, 1
  store i32 %113, i32* %9, align 4
  br label %98

114:                                              ; preds = %98
  %115 = load i32, i32* %11, align 4
  %116 = add nsw i32 %115, 1
  store i32 %116, i32* %10, align 4
  br label %117

117:                                              ; preds = %131, %114
  %118 = load i32, i32* %10, align 4
  %119 = load i32, i32* %7, align 4
  %120 = icmp slt i32 %118, %119
  br i1 %120, label %121, label %134

121:                                              ; preds = %117
  %122 = load i32, i32* %4, align 4
  %123 = sext i32 %122 to i64
  %124 = getelementptr inbounds [20 x [11 x i8]], [20 x [11 x i8]]* %2, i64 0, i64 %123
  %125 = load i32, i32* %10, align 4
  %126 = sext i32 %125 to i64
  %127 = getelementptr inbounds [11 x i8], [11 x i8]* %124, i64 0, i64 %126
  %128 = load i8, i8* %127, align 1
  %129 = sext i8 %128 to i32
  %130 = call i32 (i8*, ...) @printf(i8* getelementptr inbounds ([3 x i8], [3 x i8]* @.str.2, i64 0, i64 0), i32 %129)
  br label %131

131:                                              ; preds = %121
  %132 = load i32, i32* %10, align 4
  %133 = add nsw i32 %132, 1
  store i32 %133, i32* %10, align 4
  br label %117

134:                                              ; preds = %117
  %135 = call i32 (i8*, ...) @printf(i8* getelementptr inbounds ([2 x i8], [2 x i8]* @.str.1, i64 0, i64 0))
  store i8 0, i8* %12, align 1
  br label %136

136:                                              ; preds = %134
  %137 = load i32, i32* %4, align 4
  %138 = add nsw i32 %137, 1
  store i32 %138, i32* %4, align 4
  br label %30

139:                                              ; preds = %30
  ret i32 0
}

declare dso_local i32 @__isoc99_scanf(i8*, ...) #1

; Function Attrs: nounwind readonly
declare dso_local i64 @strlen(i8*) #2

declare dso_local i32 @printf(i8*, ...) #1


!llvm.module.flags = !{!0}
!llvm.ident = !{!1}

!0 = !{i32 1, !"wchar_size", i32 4}
!1 = !{!"clang version 10.0.0-4ubuntu1 "}
